; Function Attrs: nounwind uwtable
define ptr @l_instReprSSet___rarg___boxed(ptr noundef %0, ptr noundef %1, ptr noundef %2, ptr noundef %3, ptr noundef %4) #0 {
  %6 = load ptr, ptr @l_Lean_SSet_toList___rarg___closed__1, align 8, !tbaa !9
  %7 = tail call ptr @l_Lean_SMap_fold___at_Lean_SSet_toList___spec__1___rarg(ptr readnone poison, ptr readnone poison, ptr nonnull poison, ptr noundef %6, ptr noundef nonnull inttoptr (i64 1 to ptr), ptr noundef readonly %3)
  %8 = tail call ptr @l_List_repr___rarg(ptr noundef %2, ptr noundef %7, ptr noundef nonnull inttoptr (i64 2049 to ptr)) #3
  %9 = load ptr, ptr @l_instReprSSet___rarg___closed__2, align 8, !tbaa !9
  tail call void @lean_inc_heartbeat() #3
  %10 = tail call noalias ptr @mi_malloc_small(i64 noundef 24) #3
  %11 = icmp eq ptr %10, null
  br i1 %11, label %12, label %l_instReprSSet___rarg.exit

12:                                               ; preds = %5
  tail call void @lean_internal_panic_out_of_memory() #4
  unreachable

l_instReprSSet___rarg.exit:                       ; preds = %5
  %13 = getelementptr inbounds nuw i8, ptr %10, i64 4
  store i32 1, ptr %10, align 4, !tbaa !4
  store i32 84017176, ptr %13, align 4
  %14 = getelementptr inbounds nuw i8, ptr %10, i64 8
  store ptr %8, ptr %14, align 8, !tbaa !9
  %15 = getelementptr inbounds nuw i8, ptr %10, i64 16
  store ptr %9, ptr %15, align 8, !tbaa !9
  %16 = tail call ptr @l_Repr_addAppParen(ptr noundef nonnull %10, ptr noundef %4) #3
  %17 = ptrtoint ptr %4 to i64
  %18 = and i64 %17, 1
  %.not = icmp eq i64 %18, 0
  br i1 %.not, label %19, label %lean_dec.exit12

19:                                               ; preds = %l_instReprSSet___rarg.exit
  %20 = load i32, ptr %4, align 4, !tbaa !4
  %21 = icmp sgt i32 %20, 1
  br i1 %21, label %22, label %24, !prof !13

22:                                               ; preds = %19
  %23 = add nsw i32 %20, -1
  store i32 %23, ptr %4, align 4, !tbaa !4
  br label %lean_dec.exit12

24:                                               ; preds = %19
  %.not.i = icmp eq i32 %20, 0
  br i1 %.not.i, label %lean_dec.exit12, label %25

25:                                               ; preds = %24
  tail call void @lean_dec_ref_cold(ptr noundef nonnull %4) #3
  br label %lean_dec.exit12

lean_dec.exit12:                                  ; preds = %25, %24, %22, %l_instReprSSet___rarg.exit
  %26 = ptrtoint ptr %3 to i64
  %27 = and i64 %26, 1
  %.not19 = icmp eq i64 %27, 0
  br i1 %.not19, label %28, label %lean_dec.exit11

28:                                               ; preds = %lean_dec.exit12
  %29 = load i32, ptr %3, align 4, !tbaa !4
  %30 = icmp sgt i32 %29, 1
  br i1 %30, label %31, label %33, !prof !13

31:                                               ; preds = %28
  %32 = add nsw i32 %29, -1
  store i32 %32, ptr %3, align 4, !tbaa !4
  br label %lean_dec.exit11

33:                                               ; preds = %28
  %.not.i13 = icmp eq i32 %29, 0
  br i1 %.not.i13, label %lean_dec.exit11, label %34

34:                                               ; preds = %33
  tail call void @lean_dec_ref_cold(ptr noundef nonnull %3) #3
  br label %lean_dec.exit11

lean_dec.exit11:                                  ; preds = %34, %33, %31, %lean_dec.exit12
  %35 = ptrtoint ptr %1 to i64
  %36 = and i64 %35, 1
  %.not20 = icmp eq i64 %36, 0
  br i1 %.not20, label %37, label %lean_dec.exit10

37:                                               ; preds = %lean_dec.exit11
  %38 = load i32, ptr %1, align 4, !tbaa !4
  %39 = icmp sgt i32 %38, 1
  br i1 %39, label %40, label %42, !prof !13

40:                                               ; preds = %37
  %41 = add nsw i32 %38, -1
  store i32 %41, ptr %1, align 4, !tbaa !4
  br label %lean_dec.exit10

42:                                               ; preds = %37
  %.not.i15 = icmp eq i32 %38, 0
  br i1 %.not.i15, label %lean_dec.exit10, label %43

43:                                               ; preds = %42
  tail call void @lean_dec_ref_cold(ptr noundef nonnull %1) #3
  br label %lean_dec.exit10

lean_dec.exit10:                                  ; preds = %43, %42, %40, %lean_dec.exit11
  %44 = ptrtoint ptr %0 to i64
  %45 = and i64 %44, 1
  %.not21 = icmp eq i64 %45, 0
  br i1 %.not21, label %46, label %lean_dec.exit

46:                                               ; preds = %lean_dec.exit10
  %47 = load i32, ptr %0, align 4, !tbaa !4
  %48 = icmp sgt i32 %47, 1
  br i1 %48, label %49, label %51, !prof !13

49:                                               ; preds = %46
  %50 = add nsw i32 %47, -1
  store i32 %50, ptr %0, align 4, !tbaa !4
  br label %lean_dec.exit

51:                                               ; preds = %46
  %.not.i17 = icmp eq i32 %47, 0
  br i1 %.not.i17, label %lean_dec.exit, label %52

52:                                               ; preds = %51
  tail call void @lean_dec_ref_cold(ptr noundef nonnull %0) #3
  br label %lean_dec.exit

lean_dec.exit:                                    ; preds = %52, %51, %49, %lean_dec.exit10
  ret ptr %16
}